target datalayout = "e-m:e-p270:32:32-p271:32:32-p272:64:64-i64:64-i128:128-f80:128-n8:16:32:64-S128"
target triple = "x86_64-pc-linux-gnu"

%struct.Agobj_s = type { %struct.Agtag_s, ptr }
%struct.Agtag_s = type { i32, i64 }
%struct.Agrec_s = type { ptr, ptr }
%struct.boxf = type { %struct.pointf_s, %struct.pointf_s }
%struct.pointf_s = type { double, double }
%struct.Agnodeinfo_t = type { %struct.Agrec_s, ptr, ptr, %struct.pointf_s, double, double, %struct.boxf, double, double, double, double, double, ptr, ptr, ptr, i8, i8, i8, i8, i32, i32, i32, ptr, double, i8, i8, ptr, ptr, i8, i64, i8, i8, i8, ptr, ptr, %struct.elist, %struct.elist, %struct.elist, %struct.elist, %struct.elist, ptr, i32, ptr, i32, i32, double, %struct.elist, %struct.elist, %struct.elist, %struct.elist, ptr, i32, i32, i32, [1 x double] }
%struct.elist = type { ptr, i64 }

@Heapsize = internal global i32 0, align 4
@Heap = internal global ptr null, align 8

; Function Attrs: nounwind uwtable
define internal void @heapup(ptr noundef %0) #0 {
  %2 = alloca ptr, align 8
  %3 = alloca i32, align 4
  %4 = alloca i32, align 4
  %5 = alloca ptr, align 8
  store ptr %0, ptr %2, align 8, !tbaa !29
  call void @llvm.lifetime.start.p0(i64 4, ptr %3) #11
  call void @llvm.lifetime.start.p0(i64 4, ptr %4) #11
  call void @llvm.lifetime.start.p0(i64 8, ptr %5) #11
  %6 = load ptr, ptr %2, align 8, !tbaa !29
  %7 = getelementptr inbounds nuw %struct.Agobj_s, ptr %6, i32 0, i32 1
  %8 = load ptr, ptr %7, align 8, !tbaa !47
  %9 = getelementptr inbounds nuw %struct.Agnodeinfo_t, ptr %8, i32 0, i32 20
  %10 = load i32, ptr %9, align 8, !tbaa !68
  store i32 %10, ptr %3, align 4, !tbaa !3
  br label %11

11:                                               ; preds = %56, %1
  %12 = load i32, ptr %3, align 4, !tbaa !3
  %13 = icmp sgt i32 %12, 0
  br i1 %13, label %14, label %58

14:                                               ; preds = %11
  %15 = load i32, ptr %3, align 4, !tbaa !3
  %16 = sub nsw i32 %15, 1
  %17 = sdiv i32 %16, 2
  store i32 %17, ptr %4, align 4, !tbaa !3
  %18 = load ptr, ptr @Heap, align 8, !tbaa !77
  %19 = load i32, ptr %4, align 4, !tbaa !3
  %20 = sext i32 %19 to i64
  %21 = getelementptr inbounds ptr, ptr %18, i64 %20
  %22 = load ptr, ptr %21, align 8, !tbaa !29
  store ptr %22, ptr %5, align 8, !tbaa !29
  %23 = load ptr, ptr %5, align 8, !tbaa !29
  %24 = getelementptr inbounds nuw %struct.Agobj_s, ptr %23, i32 0, i32 1
  %25 = load ptr, ptr %24, align 8, !tbaa !47
  %26 = getelementptr inbounds nuw %struct.Agnodeinfo_t, ptr %25, i32 0, i32 23
  %27 = load double, ptr %26, align 8, !tbaa !119
  %28 = load ptr, ptr %2, align 8, !tbaa !29
  %29 = getelementptr inbounds nuw %struct.Agobj_s, ptr %28, i32 0, i32 1
  %30 = load ptr, ptr %29, align 8, !tbaa !47
  %31 = getelementptr inbounds nuw %struct.Agnodeinfo_t, ptr %30, i32 0, i32 23
  %32 = load double, ptr %31, align 8, !tbaa !119
  %33 = fcmp ole double %27, %32
  br i1 %33, label %34, label %35

34:                                               ; preds = %14
  br label %58

35:                                               ; preds = %14
  %36 = load ptr, ptr %2, align 8, !tbaa !29
  %37 = load ptr, ptr @Heap, align 8, !tbaa !77
  %38 = load i32, ptr %4, align 4, !tbaa !3
  %39 = sext i32 %38 to i64
  %40 = getelementptr inbounds ptr, ptr %37, i64 %39
  store ptr %36, ptr %40, align 8, !tbaa !29
  %41 = load i32, ptr %4, align 4, !tbaa !3
  %42 = load ptr, ptr %2, align 8, !tbaa !29
  %43 = getelementptr inbounds nuw %struct.Agobj_s, ptr %42, i32 0, i32 1
  %44 = load ptr, ptr %43, align 8, !tbaa !47
  %45 = getelementptr inbounds nuw %struct.Agnodeinfo_t, ptr %44, i32 0, i32 20
  store i32 %41, ptr %45, align 8, !tbaa !68
  %46 = load ptr, ptr %5, align 8, !tbaa !29
  %47 = load ptr, ptr @Heap, align 8, !tbaa !77
  %48 = load i32, ptr %3, align 4, !tbaa !3
  %49 = sext i32 %48 to i64
  %50 = getelementptr inbounds ptr, ptr %47, i64 %49
  store ptr %46, ptr %50, align 8, !tbaa !29
  %51 = load i32, ptr %3, align 4, !tbaa !3
  %52 = load ptr, ptr %5, align 8, !tbaa !29
  %53 = getelementptr inbounds nuw %struct.Agobj_s, ptr %52, i32 0, i32 1
  %54 = load ptr, ptr %53, align 8, !tbaa !47
  %55 = getelementptr inbounds nuw %struct.Agnodeinfo_t, ptr %54, i32 0, i32 20
  store i32 %51, ptr %55, align 8, !tbaa !68
  br label %56

56:                                               ; preds = %35
  %57 = load i32, ptr %4, align 4, !tbaa !3
  store i32 %57, ptr %3, align 4, !tbaa !3
  br label %11, !llvm.loop !120

58:                                               ; preds = %34, %11
  call void @llvm.lifetime.end.p0(i64 8, ptr %5) #11
  call void @llvm.lifetime.end.p0(i64 4, ptr %4) #11
  call void @llvm.lifetime.end.p0(i64 4, ptr %3) #11
  ret void
}

; Function Attrs: nounwind uwtable
define void @neato_enqueue(ptr noundef %0) #0 {
  %2 = alloca ptr, align 8
  %3 = alloca i32, align 4
  store ptr %0, ptr %2, align 8, !tbaa !29
  call void @llvm.lifetime.start.p0(i64 4, ptr %3) #11
  %4 = load i32, ptr @Heapsize, align 4, !tbaa !3
  %5 = add nsw i32 %4, 1
  store i32 %5, ptr @Heapsize, align 4, !tbaa !3
  store i32 %4, ptr %3, align 4, !tbaa !3
  %6 = load i32, ptr %3, align 4, !tbaa !3
  %7 = load ptr, ptr %2, align 8, !tbaa !29
  %8 = getelementptr inbounds nuw %struct.Agobj_s, ptr %7, i32 0, i32 1
  %9 = load ptr, ptr %8, align 8, !tbaa !47
  %10 = getelementptr inbounds nuw %struct.Agnodeinfo_t, ptr %9, i32 0, i32 20
  store i32 %6, ptr %10, align 8, !tbaa !68
  %11 = load ptr, ptr %2, align 8, !tbaa !29
  %12 = load ptr, ptr @Heap, align 8, !tbaa !77
  %13 = load i32, ptr %3, align 4, !tbaa !3
  %14 = sext i32 %13 to i64
  %15 = getelementptr inbounds ptr, ptr %12, i64 %14
  store ptr %11, ptr %15, align 8, !tbaa !29
  %16 = load i32, ptr %3, align 4, !tbaa !3
  %17 = icmp sgt i32 %16, 0
  br i1 %17, label %18, label %20

18:                                               ; preds = %1
  %19 = load ptr, ptr %2, align 8, !tbaa !29
  call void @heapup(ptr noundef %19)
  br label %20

20:                                               ; preds = %18, %1
  call void @llvm.lifetime.end.p0(i64 4, ptr %3) #11
  ret void
}