; Function Attrs: nofree norecurse nosync nounwind memory(readwrite, inaccessiblemem: none) uwtable
define void @neato_enqueue(ptr noundef %0) local_unnamed_addr #10 {
  %2 = load i32, ptr @Heapsize, align 4, !tbaa !68
  %3 = add nsw i32 %2, 1
  store i32 %3, ptr @Heapsize, align 4, !tbaa !68
  %4 = getelementptr inbounds nuw i8, ptr %0, i64 16
  %5 = load ptr, ptr %4, align 8, !tbaa !40
  %6 = getelementptr inbounds nuw i8, ptr %5, i64 168
  store i32 %2, ptr %6, align 8, !tbaa !64
  %7 = load ptr, ptr @Heap, align 8, !tbaa !116
  %8 = sext i32 %2 to i64
  %9 = getelementptr inbounds ptr, ptr %7, i64 %8
  store ptr %0, ptr %9, align 8, !tbaa !57
  %10 = icmp sgt i32 %2, 0
  br i1 %10, label %.lr.ph.i, label %heapup.exit

.lr.ph.i:                                         ; preds = %1
  %11 = getelementptr inbounds nuw i8, ptr %5, i64 184
  %12 = load double, ptr %11, align 8, !tbaa !117
  br label %13

13:                                               ; preds = %24, %.lr.ph.i
  %.014.i = phi i32 [ %2, %.lr.ph.i ], [ %15, %24 ]
  %14 = add nsw i32 %.014.i, -1
  %15 = lshr i32 %14, 1
  %16 = zext nneg i32 %15 to i64
  %17 = getelementptr inbounds nuw ptr, ptr %7, i64 %16
  %18 = load ptr, ptr %17, align 8, !tbaa !57
  %19 = getelementptr inbounds nuw i8, ptr %18, i64 16
  %20 = load ptr, ptr %19, align 8, !tbaa !40
  %21 = getelementptr inbounds nuw i8, ptr %20, i64 184
  %22 = load double, ptr %21, align 8, !tbaa !117
  %23 = fcmp ugt double %22, %12
  br i1 %23, label %24, label %heapup.exit

24:                                               ; preds = %13
  store ptr %0, ptr %17, align 8, !tbaa !57
  store i32 %15, ptr %6, align 8, !tbaa !64
  %25 = zext nneg i32 %.014.i to i64
  %26 = getelementptr inbounds nuw ptr, ptr %7, i64 %25
  store ptr %18, ptr %26, align 8, !tbaa !57
  %27 = getelementptr inbounds nuw i8, ptr %20, i64 168
  store i32 %.014.i, ptr %27, align 8, !tbaa !64
  %.not.i = icmp ult i32 %14, 2
  br i1 %.not.i, label %heapup.exit, label %13, !llvm.loop !118

heapup.exit:                                      ; preds = %24, %13, %1
  ret void
}